; Function Attrs: mustprogress uwtable
define internal noundef ptr @"_ZZN4pkpy15__init_builtinsEPNS_2VMEEN4$_688__invokeES1_PNS_8PyObjectES4_"(ptr noundef %0, ptr noundef %1, ptr noundef %2) #4 align 2 {
  %4 = alloca i64, align 8
  %5 = ptrtoint ptr %1 to i64
  %6 = and i64 %5, 3
  %7 = icmp eq i64 %6, 2
  br i1 %7, label %8, label %10

8:                                                ; preds = %3
  %9 = ashr i64 %5, 2
  br label %_ZN4pkpy8_py_castIlEET_PNS_2VMEPNS_8PyObjectE.exit.i

10:                                               ; preds = %3
  %11 = getelementptr inbounds i8, ptr %1, i64 24
  %12 = load i64, ptr %11, align 8
  br label %_ZN4pkpy8_py_castIlEET_PNS_2VMEPNS_8PyObjectE.exit.i

_ZN4pkpy8_py_castIlEET_PNS_2VMEPNS_8PyObjectE.exit.i: ; preds = %10, %8
  %.0.i.i.i = phi i64 [ %9, %8 ], [ %12, %10 ]
  %13 = tail call noundef i64 @_ZN4pkpy18_py_cast__internalIlLb1EEET_PNS_2VMEPNS_8PyObjectE(ptr noundef %0, ptr noundef %2)
  %14 = ashr i64 %.0.i.i.i, %13
  call void @llvm.lifetime.start.p0(i64 8, ptr nonnull %4)
  store i64 %14, ptr %4, align 8
  %or.cond.i.i = icmp ult i64 %14, 1152921504606846976
  br i1 %or.cond.i.i, label %15, label %19

15:                                               ; preds = %_ZN4pkpy8_py_castIlEET_PNS_2VMEPNS_8PyObjectE.exit.i
  %16 = shl nuw nsw i64 %14, 2
  %17 = or disjoint i64 %16, 2
  %18 = inttoptr i64 %17 to ptr
  br label %"_ZZN4pkpy15__init_builtinsEPNS_2VMEENK4$_68clES1_PNS_8PyObjectES4_.exit"

19:                                               ; preds = %_ZN4pkpy8_py_castIlEET_PNS_2VMEPNS_8PyObjectE.exit.i
  %20 = getelementptr inbounds i8, ptr %0, i64 16
  %21 = call noundef ptr @_ZN4pkpy11ManagedHeap5gcnewIlJRlEEEPNS_8PyObjectENS_4TypeEDpOT0_(ptr noundef nonnull align 8 dereferenceable(84) %20, i16 2, ptr noundef nonnull align 8 dereferenceable(8) %4)
  br label %"_ZZN4pkpy15__init_builtinsEPNS_2VMEENK4$_68clES1_PNS_8PyObjectES4_.exit"

"_ZZN4pkpy15__init_builtinsEPNS_2VMEENK4$_68clES1_PNS_8PyObjectES4_.exit": ; preds = %15, %19
  %.0.i.i = phi ptr [ %18, %15 ], [ %21, %19 ]
  call void @llvm.lifetime.end.p0(i64 8, ptr nonnull %4)
  ret ptr %.0.i.i
}